target datalayout = "e-m:e-p270:32:32-p271:32:32-p272:64:64-i64:64-i128:128-f80:128-n8:16:32:64-S128"
target triple = "x86_64-pc-linux-gnu"

@.str.10 = private unnamed_addr constant [4 x i8] c"Map\00", align 1
@.str.12 = private unnamed_addr constant [10 x i8] c"ThreadMap\00", align 1

; Function Attrs: mustprogress uwtable
define noundef zeroext i1 @_ZNK6casadi3Map4is_aERKNSt7__cxx1112basic_stringIcSt11char_traitsIcESaIcEEEb(ptr noundef nonnull align 8 dereferenceable(1320) %0, ptr noundef nonnull align 8 dereferenceable(32) %1, i1 noundef zeroext %2) unnamed_addr #4 align 2 {
  %4 = alloca ptr, align 8
  %5 = alloca ptr, align 8
  %6 = alloca i8, align 1
  store ptr %0, ptr %4, align 8
  store ptr %1, ptr %5, align 8
  %7 = zext i1 %2 to i8
  store i8 %7, ptr %6, align 1
  %8 = load ptr, ptr %4, align 8
  %9 = load ptr, ptr %5, align 8
  %10 = call noundef zeroext i1 @_ZSteqIcSt11char_traitsIcESaIcEEbRKNSt7__cxx1112basic_stringIT_T0_T1_EEPKS5_(ptr noundef nonnull align 8 dereferenceable(32) %9, ptr noundef @.str.10)
  br i1 %10, label %21, label %11

11:                                               ; preds = %3
  %12 = load i8, ptr %6, align 1
  %13 = trunc i8 %12 to i1
  br i1 %13, label %14, label %19

14:                                               ; preds = %11
  %15 = load ptr, ptr %5, align 8
  %16 = load i8, ptr %6, align 1
  %17 = trunc i8 %16 to i1
  %18 = call noundef zeroext i1 @_ZNK6casadi16FunctionInternal4is_aERKNSt7__cxx1112basic_stringIcSt11char_traitsIcESaIcEEEb(ptr noundef nonnull align 8 dereferenceable(1304) %8, ptr noundef nonnull align 8 dereferenceable(32) %15, i1 noundef zeroext %17)
  br label %19

19:                                               ; preds = %14, %11
  %20 = phi i1 [ false, %11 ], [ %18, %14 ]
  br label %21

21:                                               ; preds = %19, %3
  %22 = phi i1 [ true, %3 ], [ %20, %19 ]
  ret i1 %22
}

; Function Attrs: mustprogress nounwind uwtable
define linkonce_odr noundef zeroext i1 @_ZSteqIcSt11char_traitsIcESaIcEEbRKNSt7__cxx1112basic_stringIT_T0_T1_EEPKS5_(ptr noundef nonnull align 8 dereferenceable(32) %0, ptr noundef %1) #5 comdat {
  %3 = alloca ptr, align 8
  %4 = alloca ptr, align 8
  store ptr %0, ptr %3, align 8
  store ptr %1, ptr %4, align 8
  %5 = load ptr, ptr %3, align 8
  %6 = load ptr, ptr %4, align 8
  %7 = call noundef i32 @_ZNKSt7__cxx1112basic_stringIcSt11char_traitsIcESaIcEE7compareEPKc(ptr noundef nonnull align 8 dereferenceable(32) %5, ptr noundef %6) #3
  %8 = icmp eq i32 %7, 0
  ret i1 %8
}

; Function Attrs: mustprogress uwtable
define noundef zeroext i1 @_ZNK6casadi9ThreadMap4is_aERKNSt7__cxx1112basic_stringIcSt11char_traitsIcESaIcEEEb(ptr noundef nonnull align 8 dereferenceable(1320) %0, ptr noundef nonnull align 8 dereferenceable(32) %1, i1 noundef zeroext %2) unnamed_addr #4 align 2 {
  %4 = alloca ptr, align 8
  %5 = alloca ptr, align 8
  %6 = alloca i8, align 1
  store ptr %0, ptr %4, align 8
  store ptr %1, ptr %5, align 8
  %7 = zext i1 %2 to i8
  store i8 %7, ptr %6, align 1
  %8 = load ptr, ptr %4, align 8
  %9 = load ptr, ptr %5, align 8
  %10 = call noundef zeroext i1 @_ZSteqIcSt11char_traitsIcESaIcEEbRKNSt7__cxx1112basic_stringIT_T0_T1_EEPKS5_(ptr noundef nonnull align 8 dereferenceable(32) %9, ptr noundef @.str.12)
  br i1 %10, label %21, label %11

11:                                               ; preds = %3
  %12 = load i8, ptr %6, align 1
  %13 = trunc i8 %12 to i1
  br i1 %13, label %14, label %19

14:                                               ; preds = %11
  %15 = load ptr, ptr %5, align 8
  %16 = load i8, ptr %6, align 1
  %17 = trunc i8 %16 to i1
  %18 = call noundef zeroext i1 @_ZNK6casadi3Map4is_aERKNSt7__cxx1112basic_stringIcSt11char_traitsIcESaIcEEEb(ptr noundef nonnull align 8 dereferenceable(1320) %8, ptr noundef nonnull align 8 dereferenceable(32) %15, i1 noundef zeroext %17)
  br label %19

19:                                               ; preds = %14, %11
  %20 = phi i1 [ false, %11 ], [ %18, %14 ]
  br label %21

21:                                               ; preds = %19, %3
  %22 = phi i1 [ true, %3 ], [ %20, %19 ]
  ret i1 %22
}